; Function Attrs: nounwind uwtable
define hidden ptr @SDL_GetHapticName_REAL(ptr noundef %0) local_unnamed_addr #0 {
  %2 = tail call zeroext i1 @SDL_ObjectValid(ptr noundef %0, i32 noundef 6) #9
  br i1 %2, label %5, label %3

3:                                                ; preds = %1
  %4 = tail call zeroext i1 (ptr, ...) @SDL_SetError_REAL(ptr noundef nonnull @.str, ptr noundef nonnull @.str.1) #9
  br label %9

5:                                                ; preds = %1
  %6 = getelementptr inbounds nuw i8, ptr %0, i64 8
  %7 = load ptr, ptr %6, align 8
  %8 = tail call ptr @SDL_GetPersistentString(ptr noundef %7) #9
  br label %9

9:                                                ; preds = %5, %3
  %.0 = phi ptr [ %8, %5 ], [ null, %3 ]
  ret ptr %.0
}